target datalayout = "e-m:e-p270:32:32-p271:32:32-p272:64:64-i64:64-i128:128-f80:128-n8:16:32:64-S128"
target triple = "x86_64-pc-linux-gnu"

@__const.key2any_check_selection.checks = private unnamed_addr constant [3 x i32] [i32 1, i32 2, i32 132], align 4

; Function Attrs: nounwind uwtable
define internal i32 @key2any_check_selection(i32 noundef %0, i32 noundef %1) #0 {
  %3 = alloca i32, align 4
  %4 = alloca i32, align 4
  %5 = alloca i32, align 4
  %6 = alloca [3 x i32], align 4
  %7 = alloca i64, align 8
  %8 = alloca i32, align 4
  %9 = alloca i32, align 4
  %10 = alloca i32, align 4
  store i32 %0, ptr %4, align 4, !tbaa !25
  store i32 %1, ptr %5, align 4, !tbaa !25
  call void @llvm.lifetime.start.p0(i64 12, ptr %6) #4
  call void @llvm.memcpy.p0.p0.i64(ptr align 4 %6, ptr align 4 @__const.key2any_check_selection.checks, i64 12, i1 false)
  call void @llvm.lifetime.start.p0(i64 8, ptr %7) #4
  %11 = load i32, ptr %4, align 4, !tbaa !25
  %12 = icmp eq i32 %11, 0
  br i1 %12, label %13, label %14

13:                                               ; preds = %2
  store i32 1, ptr %3, align 4
  store i32 1, ptr %8, align 4
  br label %45

14:                                               ; preds = %2
  store i64 0, ptr %7, align 8, !tbaa !28
  br label %15

15:                                               ; preds = %41, %14
  %16 = load i64, ptr %7, align 8, !tbaa !28
  %17 = icmp ult i64 %16, 3
  br i1 %17, label %18, label %44

18:                                               ; preds = %15
  call void @llvm.lifetime.start.p0(i64 4, ptr %9) #4
  %19 = load i32, ptr %4, align 4, !tbaa !25
  %20 = load i64, ptr %7, align 8, !tbaa !28
  %21 = getelementptr inbounds nuw [3 x i32], ptr %6, i64 0, i64 %20
  %22 = load i32, ptr %21, align 4, !tbaa !25
  %23 = and i32 %19, %22
  %24 = icmp ne i32 %23, 0
  %25 = zext i1 %24 to i32
  store i32 %25, ptr %9, align 4, !tbaa !25
  call void @llvm.lifetime.start.p0(i64 4, ptr %10) #4
  %26 = load i32, ptr %5, align 4, !tbaa !25
  %27 = load i64, ptr %7, align 8, !tbaa !28
  %28 = getelementptr inbounds nuw [3 x i32], ptr %6, i64 0, i64 %27
  %29 = load i32, ptr %28, align 4, !tbaa !25
  %30 = and i32 %26, %29
  %31 = icmp ne i32 %30, 0
  %32 = zext i1 %31 to i32
  store i32 %32, ptr %10, align 4, !tbaa !25
  %33 = load i32, ptr %9, align 4, !tbaa !25
  %34 = icmp ne i32 %33, 0
  br i1 %34, label %35, label %37

35:                                               ; preds = %18
  %36 = load i32, ptr %10, align 4, !tbaa !25
  store i32 %36, ptr %3, align 4
  store i32 1, ptr %8, align 4
  br label %38

37:                                               ; preds = %18
  store i32 0, ptr %8, align 4
  br label %38

38:                                               ; preds = %37, %35
  call void @llvm.lifetime.end.p0(i64 4, ptr %10) #4
  call void @llvm.lifetime.end.p0(i64 4, ptr %9) #4
  %39 = load i32, ptr %8, align 4
  switch i32 %39, label %45 [
    i32 0, label %40
  ]

40:                                               ; preds = %38
  br label %41

41:                                               ; preds = %40
  %42 = load i64, ptr %7, align 8, !tbaa !28
  %43 = add i64 %42, 1
  store i64 %43, ptr %7, align 8, !tbaa !28
  br label %15, !llvm.loop !29

44:                                               ; preds = %15
  store i32 0, ptr %3, align 4
  store i32 1, ptr %8, align 4
  br label %45

45:                                               ; preds = %44, %38, %13
  call void @llvm.lifetime.end.p0(i64 8, ptr %7) #4
  call void @llvm.lifetime.end.p0(i64 12, ptr %6) #4
  %46 = load i32, ptr %3, align 4
  ret i32 %46
}

; Function Attrs: nounwind uwtable
define internal i32 @ml_dsa_65_to_EncryptedPrivateKeyInfo_pem_does_selection(ptr noundef %0, i32 noundef %1) #0 {
  %3 = alloca ptr, align 8
  %4 = alloca i32, align 4
  store ptr %0, ptr %3, align 8, !tbaa !3
  store i32 %1, ptr %4, align 4, !tbaa !25
  %5 = load i32, ptr %4, align 4, !tbaa !25
  %6 = call i32 @key2any_check_selection(i32 noundef %5, i32 noundef 1)
  ret i32 %6
}